; Function Attrs: mustprogress nofree norecurse nosync nounwind willreturn memory(read, inaccessiblemem: none) uwtable
define hidden range(i32 0, 2) i32 @ssl_write_buffer_is_pending(ptr noundef readonly captures(none) %0) local_unnamed_addr #0 {
  %2 = getelementptr inbounds nuw i8, ptr %0, i64 80
  %3 = load ptr, ptr %2, align 8, !tbaa !6
  %4 = getelementptr inbounds nuw i8, ptr %3, i64 114
  %5 = load i16, ptr %4, align 2, !tbaa !62
  %6 = icmp ne i16 %5, 0
  %7 = zext i1 %6 to i32
  ret i32 %7
}